target datalayout = "e-m:e-p270:32:32-p271:32:32-p272:64:64-i64:64-i128:128-f80:128-n8:16:32:64-S128"
target triple = "x86_64-pc-linux-gnu"

%struct._lv_obj_t = type { ptr, ptr, ptr, ptr, ptr, %struct.lv_area_t, i32, i16, i16 }
%struct.lv_area_t = type { i32, i32, i32, i32 }
%union.lv_style_value_t = type { ptr }

; Function Attrs: nounwind uwtable
define ptr @lv_obj_get_style_prop(ptr noundef %0, i32 noundef %1, i8 noundef zeroext %2) #0 {
  %4 = alloca %union.lv_style_value_t, align 8
  %5 = alloca ptr, align 8
  %6 = alloca i32, align 4
  %7 = alloca i8, align 1
  %8 = alloca i32, align 4
  %9 = alloca %union.lv_style_value_t, align 8
  %10 = alloca i32, align 4
  %11 = alloca i32, align 4
  store ptr %0, ptr %5, align 8, !tbaa !30
  store i32 %1, ptr %6, align 4, !tbaa !32
  store i8 %2, ptr %7, align 1, !tbaa !43
  br label %12

12:                                               ; preds = %3
  %13 = load ptr, ptr %5, align 8, !tbaa !30
  %14 = icmp ne ptr %13, null
  br i1 %14, label %19, label %15

15:                                               ; preds = %12
  br label %16

16:                                               ; preds = %15
  br label %17

17:                                               ; preds = %16
  br label %18

18:                                               ; preds = %17, %18
  br label %18

19:                                               ; preds = %12
  br label %20

20:                                               ; preds = %19
  call void @llvm.lifetime.start.p0(i64 4, ptr %8) #6
  %21 = load i32, ptr %6, align 4, !tbaa !32
  %22 = load ptr, ptr %5, align 8, !tbaa !30
  %23 = getelementptr inbounds nuw %struct._lv_obj_t, ptr %22, i32 0, i32 7
  %24 = load i16, ptr %23, align 4, !tbaa !91
  %25 = zext i16 %24 to i32
  %26 = or i32 %21, %25
  store i32 %26, ptr %8, align 4, !tbaa !32
  call void @llvm.lifetime.start.p0(i64 8, ptr %9) #6
  call void @llvm.memset.p0.i64(ptr align 8 %9, i8 0, i64 8, i1 false)
  call void @llvm.lifetime.start.p0(i64 4, ptr %10) #6
  %27 = load ptr, ptr %5, align 8, !tbaa !30
  %28 = load i32, ptr %8, align 4, !tbaa !32
  %29 = load i8, ptr %7, align 1, !tbaa !43
  %30 = call i32 @get_selector_style_prop(ptr noundef %27, i32 noundef %28, i8 noundef zeroext %29, ptr noundef %9)
  store i32 %30, ptr %10, align 4, !tbaa !32
  %31 = load i32, ptr %10, align 4, !tbaa !32
  %32 = icmp eq i32 %31, 1
  br i1 %32, label %33, label %34

33:                                               ; preds = %20
  call void @llvm.memcpy.p0.p0.i64(ptr align 8 %4, ptr align 8 %9, i64 8, i1 false), !tbaa.struct !92
  store i32 1, ptr %11, align 4
  br label %38

34:                                               ; preds = %20
  %35 = load i8, ptr %7, align 1, !tbaa !43
  %36 = call ptr @lv_style_prop_get_default(i8 noundef zeroext %35)
  %37 = getelementptr inbounds nuw %union.lv_style_value_t, ptr %4, i32 0, i32 0
  store ptr %36, ptr %37, align 8
  store i32 1, ptr %11, align 4
  br label %38

38:                                               ; preds = %34, %33
  call void @llvm.lifetime.end.p0(i64 4, ptr %10) #6
  call void @llvm.lifetime.end.p0(i64 8, ptr %9) #6
  call void @llvm.lifetime.end.p0(i64 4, ptr %8) #6
  %39 = getelementptr inbounds nuw %union.lv_style_value_t, ptr %4, i32 0, i32 0
  %40 = load ptr, ptr %39, align 8
  ret ptr %40
}