; Function Attrs: nounwind uwtable
define ptr @lv_obj_get_style_prop(ptr noundef readonly captures(address_is_null) %0, i32 noundef %1, i8 noundef zeroext %2) local_unnamed_addr #0 {
  %4 = alloca %union.lv_style_value_t, align 8
  %.not = icmp eq ptr %0, null
  br i1 %.not, label %.preheader, label %5

.preheader:                                       ; preds = %3, %.preheader
  br label %.preheader

5:                                                ; preds = %3
  %6 = getelementptr inbounds nuw i8, ptr %0, i64 60
  %7 = load i16, ptr %6, align 4, !tbaa !62
  %8 = zext i16 %7 to i32
  %9 = or i32 %1, %8
  call void @llvm.lifetime.start.p0(i64 8, ptr nonnull %4) #9
  store i64 0, ptr %4, align 8
  %10 = call fastcc i32 @get_selector_style_prop(ptr noundef %0, i32 noundef %9, i8 noundef zeroext %2, ptr noundef %4)
  %.not7 = icmp eq i32 %10, 0
  br i1 %.not7, label %12, label %11

11:                                               ; preds = %5
  %.sroa.0.0.copyload = load ptr, ptr %4, align 8, !tbaa !37
  br label %14

12:                                               ; preds = %5
  %13 = tail call ptr @lv_style_prop_get_default(i8 noundef zeroext %2) #9
  br label %14

14:                                               ; preds = %12, %11
  %.sroa.0.0 = phi ptr [ %.sroa.0.0.copyload, %11 ], [ %13, %12 ]
  call void @llvm.lifetime.end.p0(i64 8, ptr nonnull %4) #9
  ret ptr %.sroa.0.0
}